target datalayout = "e-m:e-p270:32:32-p271:32:32-p272:64:64-i64:64-i128:128-f80:128-n8:16:32:64-S128"
target triple = "x86_64-pc-linux-gnu"

%struct.expert_field = type { i32, i32 }
%struct._packet_info = type { ptr, ptr, i32, i32, %struct.nstime_t, %struct.nstime_t, %struct.nstime_t, i8, ptr, ptr, ptr, ptr, %struct._address, %struct._address, %struct._address, %struct._address, %struct._address, %struct._address, i32, ptr, i8, [3 x i8], %struct.anon, i32, i32, i32, i32, ptr, i8, ptr, ptr, i16, i16, i32, i32, i16, i32, i32, ptr, ptr, ptr, i8, i8, i16, i16, i16, i32, i16, i16, ptr, ptr, ptr, ptr, ptr, i32, i32 }
%struct.nstime_t = type { i64, i32 }
%struct._address = type { i32, i32, ptr, ptr }
%struct.anon = type { i8, [3 x i8] }

@hf_docsis_dccack_type = internal global i32 0, align 4
@hf_docsis_dccack_length = internal global i32 0, align 4
@hf_docsis_dccack_key_seq_num = internal global i32 0, align 4
@hf_docsis_dccack_hmac_digest = internal global i32 0, align 4
@hf_docsis_mgt_tranid = internal global i32 0, align 4
@ett_docsis_dccack = internal global i32 0, align 4
@ett_docsis_dccack_tlv = internal global i32 0, align 4
@ei_docsis_mgmt_tlvlen_bad = internal global %struct.expert_field zeroinitializer, align 4
@proto_docsis_dccack = internal global i32 0, align 4
@dccack_tlv_vals = internal constant [3 x { i32, [4 x i8], ptr }] [{ i32, [4 x i8], ptr } { i32 27, [4 x i8] zeroinitializer, ptr @.str.504 }, { i32, [4 x i8], ptr } { i32 31, [4 x i8] zeroinitializer, ptr @.str.502 }, { i32, [4 x i8], ptr } zeroinitializer], align 16
@.str.2140 = private unnamed_addr constant [17 x i8] c"Unknown TLV (%u)\00", align 1
@.str.2141 = private unnamed_addr constant [21 x i8] c"Wrong TLV length: %u\00", align 1
@.str.2187 = private unnamed_addr constant [16 x i8] c"DCC-ACK Message\00", align 1

; Function Attrs: null_pointer_is_valid sspstrong uwtable
define internal i32 @dissect_dccack(ptr noundef %0, ptr noundef %1, ptr noundef %2, ptr noundef %3) #0 {
  %5 = alloca ptr, align 8
  %6 = alloca ptr, align 8
  %7 = alloca ptr, align 8
  %8 = alloca ptr, align 8
  %9 = alloca i16, align 2
  %10 = alloca i8, align 1
  %11 = alloca i32, align 4
  %12 = alloca ptr, align 8
  %13 = alloca ptr, align 8
  %14 = alloca ptr, align 8
  %15 = alloca ptr, align 8
  %16 = alloca ptr, align 8
  store ptr %0, ptr %5, align 8
  store ptr %1, ptr %6, align 8
  store ptr %2, ptr %7, align 8
  store ptr %3, ptr %8, align 8
  call void @llvm.lifetime.start.p0(i64 2, ptr %9) #6
  call void @llvm.lifetime.start.p0(i64 1, ptr %10) #6
  call void @llvm.lifetime.start.p0(i64 4, ptr %11) #6
  call void @llvm.lifetime.start.p0(i64 8, ptr %12) #6
  call void @llvm.lifetime.start.p0(i64 8, ptr %13) #6
  call void @llvm.lifetime.start.p0(i64 8, ptr %14) #6
  call void @llvm.lifetime.start.p0(i64 8, ptr %15) #6
  call void @llvm.lifetime.start.p0(i64 8, ptr %16) #6
  %17 = load ptr, ptr %6, align 8
  %18 = getelementptr inbounds nuw %struct._packet_info, ptr %17, i32 0, i32 1
  %19 = load ptr, ptr %18, align 8
  call void @col_set_str(ptr noundef %19, i32 noundef 25, ptr noundef @.str.2187)
  %20 = load ptr, ptr %7, align 8
  %21 = load i32, ptr @proto_docsis_dccack, align 4
  %22 = load ptr, ptr %5, align 8
  %23 = call ptr @proto_tree_add_item(ptr noundef %20, i32 noundef %21, ptr noundef %22, i32 noundef 0, i32 noundef -1, i32 noundef 0)
  store ptr %23, ptr %14, align 8
  %24 = load ptr, ptr %14, align 8
  %25 = load i32, ptr @ett_docsis_dccack, align 4
  %26 = call ptr @proto_item_add_subtree(ptr noundef %24, i32 noundef %25)
  store ptr %26, ptr %12, align 8
  %27 = load ptr, ptr %12, align 8
  %28 = load i32, ptr @hf_docsis_mgt_tranid, align 4
  %29 = load ptr, ptr %5, align 8
  %30 = call ptr @proto_tree_add_item(ptr noundef %27, i32 noundef %28, ptr noundef %29, i32 noundef 0, i32 noundef 2, i32 noundef 0)
  store i16 2, ptr %9, align 2
  br label %31

31:                                               ; preds = %108, %4
  %32 = load ptr, ptr %5, align 8
  %33 = load i16, ptr %9, align 2
  %34 = zext i16 %33 to i32
  %35 = call i32 @tvb_reported_length_remaining(ptr noundef %32, i32 noundef %34)
  %36 = icmp sgt i32 %35, 0
  br i1 %36, label %37, label %114

37:                                               ; preds = %31
  %38 = load ptr, ptr %5, align 8
  %39 = load i16, ptr %9, align 2
  %40 = zext i16 %39 to i32
  %41 = call zeroext i8 @tvb_get_uint8(ptr noundef %38, i32 noundef %40)
  store i8 %41, ptr %10, align 1
  %42 = load ptr, ptr %12, align 8
  %43 = load ptr, ptr %5, align 8
  %44 = load i16, ptr %9, align 2
  %45 = zext i16 %44 to i32
  %46 = load i32, ptr @ett_docsis_dccack_tlv, align 4
  %47 = load i8, ptr %10, align 1
  %48 = zext i8 %47 to i32
  %49 = call ptr @val_to_str(i32 noundef %48, ptr noundef @dccack_tlv_vals, ptr noundef @.str.2140)
  %50 = call ptr @proto_tree_add_subtree(ptr noundef %42, ptr noundef %43, i32 noundef %45, i32 noundef -1, i32 noundef %46, ptr noundef %15, ptr noundef %49)
  store ptr %50, ptr %13, align 8
  %51 = load ptr, ptr %13, align 8
  %52 = load i32, ptr @hf_docsis_dccack_type, align 4
  %53 = load ptr, ptr %5, align 8
  %54 = load i16, ptr %9, align 2
  %55 = zext i16 %54 to i32
  %56 = load i8, ptr %10, align 1
  %57 = zext i8 %56 to i32
  %58 = call ptr @proto_tree_add_uint(ptr noundef %51, i32 noundef %52, ptr noundef %53, i32 noundef %55, i32 noundef 1, i32 noundef %57)
  %59 = load i16, ptr %9, align 2
  %60 = add i16 %59, 1
  store i16 %60, ptr %9, align 2
  %61 = load ptr, ptr %13, align 8
  %62 = load i32, ptr @hf_docsis_dccack_length, align 4
  %63 = load ptr, ptr %5, align 8
  %64 = load i16, ptr %9, align 2
  %65 = zext i16 %64 to i32
  %66 = call ptr @proto_tree_add_item_ret_uint(ptr noundef %61, i32 noundef %62, ptr noundef %63, i32 noundef %65, i32 noundef 1, i32 noundef 0, ptr noundef %11)
  store ptr %66, ptr %16, align 8
  %67 = load i16, ptr %9, align 2
  %68 = add i16 %67, 1
  store i16 %68, ptr %9, align 2
  %69 = load ptr, ptr %15, align 8
  %70 = load i32, ptr %11, align 4
  %71 = add i32 %70, 2
  call void @proto_item_set_len(ptr noundef %69, i32 noundef %71)
  %72 = load i8, ptr %10, align 1
  %73 = zext i8 %72 to i32
  switch i32 %73, label %108 [
    i32 31, label %74
    i32 27, label %91
  ]

74:                                               ; preds = %37
  %75 = load i32, ptr %11, align 4
  %76 = icmp eq i32 %75, 1
  br i1 %76, label %77, label %85

77:                                               ; preds = %74
  %78 = load ptr, ptr %13, align 8
  %79 = load i32, ptr @hf_docsis_dccack_key_seq_num, align 4
  %80 = load ptr, ptr %5, align 8
  %81 = load i16, ptr %9, align 2
  %82 = zext i16 %81 to i32
  %83 = load i32, ptr %11, align 4
  %84 = call ptr @proto_tree_add_item(ptr noundef %78, i32 noundef %79, ptr noundef %80, i32 noundef %82, i32 noundef %83, i32 noundef 0)
  br label %90

85:                                               ; preds = %74
  %86 = load ptr, ptr %6, align 8
  %87 = load ptr, ptr %16, align 8
  %88 = load i32, ptr %11, align 4
  %89 = call ptr (ptr, ptr, ptr, ptr, ...) @expert_add_info_format(ptr noundef %86, ptr noundef %87, ptr noundef @ei_docsis_mgmt_tlvlen_bad, ptr noundef @.str.2141, i32 noundef %88)
  br label %90

90:                                               ; preds = %85, %77
  br label %108

91:                                               ; preds = %37
  %92 = load i32, ptr %11, align 4
  %93 = icmp eq i32 %92, 20
  br i1 %93, label %94, label %102

94:                                               ; preds = %91
  %95 = load ptr, ptr %13, align 8
  %96 = load i32, ptr @hf_docsis_dccack_hmac_digest, align 4
  %97 = load ptr, ptr %5, align 8
  %98 = load i16, ptr %9, align 2
  %99 = zext i16 %98 to i32
  %100 = load i32, ptr %11, align 4
  %101 = call ptr @proto_tree_add_item(ptr noundef %95, i32 noundef %96, ptr noundef %97, i32 noundef %99, i32 noundef %100, i32 noundef 0)
  br label %107

102:                                              ; preds = %91
  %103 = load ptr, ptr %6, align 8
  %104 = load ptr, ptr %16, align 8
  %105 = load i32, ptr %11, align 4
  %106 = call ptr (ptr, ptr, ptr, ptr, ...) @expert_add_info_format(ptr noundef %103, ptr noundef %104, ptr noundef @ei_docsis_mgmt_tlvlen_bad, ptr noundef @.str.2141, i32 noundef %105)
  br label %107

107:                                              ; preds = %102, %94
  br label %108

108:                                              ; preds = %37, %107, %90
  %109 = load i32, ptr %11, align 4
  %110 = load i16, ptr %9, align 2
  %111 = zext i16 %110 to i32
  %112 = add i32 %111, %109
  %113 = trunc i32 %112 to i16
  store i16 %113, ptr %9, align 2
  br label %31, !llvm.loop !10

114:                                              ; preds = %31
  %115 = load ptr, ptr %5, align 8
  %116 = call i32 @tvb_captured_length(ptr noundef %115)
  call void @llvm.lifetime.end.p0(i64 8, ptr %16) #6
  call void @llvm.lifetime.end.p0(i64 8, ptr %15) #6
  call void @llvm.lifetime.end.p0(i64 8, ptr %14) #6
  call void @llvm.lifetime.end.p0(i64 8, ptr %13) #6
  call void @llvm.lifetime.end.p0(i64 8, ptr %12) #6
  call void @llvm.lifetime.end.p0(i64 4, ptr %11) #6
  call void @llvm.lifetime.end.p0(i64 1, ptr %10) #6
  call void @llvm.lifetime.end.p0(i64 2, ptr %9) #6
  ret i32 %116
}