; Function Attrs: null_pointer_is_valid sspstrong uwtable
define internal i32 @dissect_dccack(ptr noundef %0, ptr noundef %1, ptr noundef %2, ptr readnone captures(none) %3) #0 {
  %5 = alloca i32, align 4
  %6 = alloca ptr, align 8
  call void @llvm.lifetime.start.p0(i64 4, ptr nonnull %5) #6
  call void @llvm.lifetime.start.p0(i64 8, ptr nonnull %6) #6
  %7 = getelementptr inbounds nuw i8, ptr %1, i64 8
  %8 = load ptr, ptr %7, align 8
  tail call void @col_set_str(ptr noundef %8, i32 noundef 25, ptr noundef nonnull @.str.2187)
  %9 = load i32, ptr @proto_docsis_dccack, align 4
  %10 = tail call ptr @proto_tree_add_item(ptr noundef %2, i32 noundef %9, ptr noundef %0, i32 noundef 0, i32 noundef -1, i32 noundef 0)
  %11 = load i32, ptr @ett_docsis_dccack, align 4
  %12 = tail call ptr @proto_item_add_subtree(ptr noundef %10, i32 noundef %11)
  %13 = load i32, ptr @hf_docsis_mgt_tranid, align 4
  %14 = tail call ptr @proto_tree_add_item(ptr noundef %12, i32 noundef %13, ptr noundef %0, i32 noundef 0, i32 noundef 2, i32 noundef 0)
  %15 = tail call i32 @tvb_reported_length_remaining(ptr noundef %0, i32 noundef 2)
  %16 = icmp sgt i32 %15, 0
  br i1 %16, label %.lr.ph, label %._crit_edge

.lr.ph:                                           ; preds = %4, %51
  %17 = phi i32 [ %55, %51 ], [ 2, %4 ]
  %.038 = phi i16 [ %54, %51 ], [ 2, %4 ]
  %18 = call zeroext i8 @tvb_get_uint8(ptr noundef %0, i32 noundef %17)
  %19 = load i32, ptr @ett_docsis_dccack_tlv, align 4
  %20 = zext i8 %18 to i32
  %21 = call ptr @val_to_str(i32 noundef %20, ptr noundef nonnull @dccack_tlv_vals, ptr noundef nonnull @.str.2140)
  %22 = call ptr @proto_tree_add_subtree(ptr noundef %12, ptr noundef %0, i32 noundef %17, i32 noundef -1, i32 noundef %19, ptr noundef nonnull %6, ptr noundef %21)
  %23 = load i32, ptr @hf_docsis_dccack_type, align 4
  %24 = call ptr @proto_tree_add_uint(ptr noundef %22, i32 noundef %23, ptr noundef %0, i32 noundef %17, i32 noundef 1, i32 noundef %20)
  %25 = add i16 %.038, 1
  %26 = load i32, ptr @hf_docsis_dccack_length, align 4
  %27 = zext i16 %25 to i32
  %28 = call ptr @proto_tree_add_item_ret_uint(ptr noundef %22, i32 noundef %26, ptr noundef %0, i32 noundef %27, i32 noundef 1, i32 noundef 0, ptr noundef nonnull %5)
  %29 = add i16 %.038, 2
  %30 = load ptr, ptr %6, align 8
  %31 = load i32, ptr %5, align 4
  %32 = add i32 %31, 2
  call void @proto_item_set_len(ptr noundef %30, i32 noundef %32)
  switch i8 %18, label %51 [
    i8 31, label %33
    i8 27, label %42
  ]

33:                                               ; preds = %.lr.ph
  %34 = load i32, ptr %5, align 4
  %35 = icmp eq i32 %34, 1
  br i1 %35, label %36, label %40

36:                                               ; preds = %33
  %37 = load i32, ptr @hf_docsis_dccack_key_seq_num, align 4
  %38 = zext i16 %29 to i32
  %39 = call ptr @proto_tree_add_item(ptr noundef %22, i32 noundef %37, ptr noundef %0, i32 noundef %38, i32 noundef 1, i32 noundef 0)
  br label %51

40:                                               ; preds = %33
  %41 = call ptr (ptr, ptr, ptr, ptr, ...) @expert_add_info_format(ptr noundef %1, ptr noundef %28, ptr noundef nonnull @ei_docsis_mgmt_tlvlen_bad, ptr noundef nonnull @.str.2141, i32 noundef %34)
  br label %51

42:                                               ; preds = %.lr.ph
  %43 = load i32, ptr %5, align 4
  %44 = icmp eq i32 %43, 20
  br i1 %44, label %45, label %49

45:                                               ; preds = %42
  %46 = load i32, ptr @hf_docsis_dccack_hmac_digest, align 4
  %47 = zext i16 %29 to i32
  %48 = call ptr @proto_tree_add_item(ptr noundef %22, i32 noundef %46, ptr noundef %0, i32 noundef %47, i32 noundef 20, i32 noundef 0)
  br label %51

49:                                               ; preds = %42
  %50 = call ptr (ptr, ptr, ptr, ptr, ...) @expert_add_info_format(ptr noundef %1, ptr noundef %28, ptr noundef nonnull @ei_docsis_mgmt_tlvlen_bad, ptr noundef nonnull @.str.2141, i32 noundef %43)
  br label %51

51:                                               ; preds = %45, %49, %36, %40, %.lr.ph
  %52 = load i32, ptr %5, align 4
  %53 = trunc i32 %52 to i16
  %54 = add i16 %29, %53
  %55 = zext i16 %54 to i32
  %56 = call i32 @tvb_reported_length_remaining(ptr noundef %0, i32 noundef %55)
  %57 = icmp sgt i32 %56, 0
  br i1 %57, label %.lr.ph, label %._crit_edge, !llvm.loop !16

._crit_edge:                                      ; preds = %51, %4
  %58 = call i32 @tvb_captured_length(ptr noundef %0)
  call void @llvm.lifetime.end.p0(i64 8, ptr nonnull %6) #6
  call void @llvm.lifetime.end.p0(i64 4, ptr nonnull %5) #6
  ret i32 %58
}